target datalayout = "e-m:e-p270:32:32-p271:32:32-p272:64:64-i64:64-i128:128-f80:128-n8:16:32:64-S128"
target triple = "x86_64-pc-linux-gnu"

%struct.CodedBitstreamContext = type { ptr, ptr, ptr, ptr, i32, i32, i32, ptr, ptr, ptr, ptr, i64 }
%struct.PutBitContext = type { i32, i32, ptr, ptr, ptr }

@.str.8 = private unnamed_addr constant [30 x i8] c"Assertion %s failed at %s:%d\0A\00", align 1
@.str.10 = private unnamed_addr constant [21 x i8] c"libavcodec/cbs_vp9.c\00", align 1
@.str.12 = private unnamed_addr constant [31 x i8] c"start_position <= end_position\00", align 1
@.str.87 = private unnamed_addr constant [43 x i8] c"Internal error, put_bits buffer too small\0A\00", align 1
@.str.89 = private unnamed_addr constant [52 x i8] c"range_min <= range_max && range_max - range_min < 8\00", align 1
@.str.90 = private unnamed_addr constant [46 x i8] c"%s out of range: %u, but must be in [%u,%u].\0A\00", align 1

; Function Attrs: alwaysinline nounwind willreturn memory(none) uwtable
define internal i32 @av_bswap32(i32 noundef %0) #7 {
  %2 = alloca i32, align 4
  store i32 %0, ptr %2, align 4, !tbaa !11
  %3 = load i32, ptr %2, align 4, !tbaa !11
  %4 = shl i32 %3, 8
  %5 = and i32 %4, 65280
  %6 = load i32, ptr %2, align 4, !tbaa !11
  %7 = lshr i32 %6, 8
  %8 = and i32 %7, 255
  %9 = or i32 %5, %8
  %10 = shl i32 %9, 16
  %11 = load i32, ptr %2, align 4, !tbaa !11
  %12 = lshr i32 %11, 16
  %13 = shl i32 %12, 8
  %14 = and i32 %13, 65280
  %15 = load i32, ptr %2, align 4, !tbaa !11
  %16 = lshr i32 %15, 16
  %17 = lshr i32 %16, 8
  %18 = and i32 %17, 255
  %19 = or i32 %14, %18
  %20 = or i32 %10, %19
  ret i32 %20
}

; Function Attrs: inlinehint nounwind uwtable
define internal void @put_bits_no_assert(ptr noundef %0, i32 noundef %1, i32 noundef %2) #3 {
  %4 = alloca ptr, align 8
  %5 = alloca i32, align 4
  %6 = alloca i32, align 4
  %7 = alloca i32, align 4
  %8 = alloca i32, align 4
  store ptr %0, ptr %4, align 8, !tbaa !45
  store i32 %1, ptr %5, align 4, !tbaa !11
  store i32 %2, ptr %6, align 4, !tbaa !11
  call void @llvm.lifetime.start.p0(i64 4, ptr %7) #8
  call void @llvm.lifetime.start.p0(i64 4, ptr %8) #8
  %9 = load ptr, ptr %4, align 8, !tbaa !45
  %10 = getelementptr inbounds nuw %struct.PutBitContext, ptr %9, i32 0, i32 0
  %11 = load i32, ptr %10, align 8, !tbaa !162
  store i32 %11, ptr %7, align 4, !tbaa !11
  %12 = load ptr, ptr %4, align 8, !tbaa !45
  %13 = getelementptr inbounds nuw %struct.PutBitContext, ptr %12, i32 0, i32 1
  %14 = load i32, ptr %13, align 4, !tbaa !160
  store i32 %14, ptr %8, align 4, !tbaa !11
  %15 = load i32, ptr %5, align 4, !tbaa !11
  %16 = load i32, ptr %8, align 4, !tbaa !11
  %17 = icmp slt i32 %15, %16
  br i1 %17, label %18, label %27

18:                                               ; preds = %3
  %19 = load i32, ptr %7, align 4, !tbaa !11
  %20 = load i32, ptr %5, align 4, !tbaa !11
  %21 = shl i32 %19, %20
  %22 = load i32, ptr %6, align 4, !tbaa !11
  %23 = or i32 %21, %22
  store i32 %23, ptr %7, align 4, !tbaa !11
  %24 = load i32, ptr %5, align 4, !tbaa !11
  %25 = load i32, ptr %8, align 4, !tbaa !11
  %26 = sub nsw i32 %25, %24
  store i32 %26, ptr %8, align 4, !tbaa !11
  br label %65

27:                                               ; preds = %3
  %28 = load i32, ptr %8, align 4, !tbaa !11
  %29 = load i32, ptr %7, align 4, !tbaa !11
  %30 = shl i32 %29, %28
  store i32 %30, ptr %7, align 4, !tbaa !11
  %31 = load i32, ptr %6, align 4, !tbaa !11
  %32 = load i32, ptr %5, align 4, !tbaa !11
  %33 = load i32, ptr %8, align 4, !tbaa !11
  %34 = sub nsw i32 %32, %33
  %35 = lshr i32 %31, %34
  %36 = load i32, ptr %7, align 4, !tbaa !11
  %37 = or i32 %36, %35
  store i32 %37, ptr %7, align 4, !tbaa !11
  %38 = load ptr, ptr %4, align 8, !tbaa !45
  %39 = getelementptr inbounds nuw %struct.PutBitContext, ptr %38, i32 0, i32 4
  %40 = load ptr, ptr %39, align 8, !tbaa !161
  %41 = load ptr, ptr %4, align 8, !tbaa !45
  %42 = getelementptr inbounds nuw %struct.PutBitContext, ptr %41, i32 0, i32 3
  %43 = load ptr, ptr %42, align 8, !tbaa !157
  %44 = ptrtoint ptr %40 to i64
  %45 = ptrtoint ptr %43 to i64
  %46 = sub i64 %44, %45
  %47 = icmp uge i64 %46, 4
  br i1 %47, label %48, label %58

48:                                               ; preds = %27
  %49 = load i32, ptr %7, align 4, !tbaa !11
  %50 = call i32 @av_bswap32(i32 noundef %49) #10
  %51 = load ptr, ptr %4, align 8, !tbaa !45
  %52 = getelementptr inbounds nuw %struct.PutBitContext, ptr %51, i32 0, i32 3
  %53 = load ptr, ptr %52, align 8, !tbaa !157
  store i32 %50, ptr %53, align 1, !tbaa !20
  %54 = load ptr, ptr %4, align 8, !tbaa !45
  %55 = getelementptr inbounds nuw %struct.PutBitContext, ptr %54, i32 0, i32 3
  %56 = load ptr, ptr %55, align 8, !tbaa !157
  %57 = getelementptr inbounds nuw i8, ptr %56, i64 4
  store ptr %57, ptr %55, align 8, !tbaa !157
  br label %59

58:                                               ; preds = %27
  call void (ptr, i32, ptr, ...) @av_log(ptr noundef null, i32 noundef 16, ptr noundef @.str.87)
  br label %59

59:                                               ; preds = %58, %48
  %60 = load i32, ptr %5, align 4, !tbaa !11
  %61 = sub nsw i32 32, %60
  %62 = load i32, ptr %8, align 4, !tbaa !11
  %63 = add nsw i32 %62, %61
  store i32 %63, ptr %8, align 4, !tbaa !11
  %64 = load i32, ptr %6, align 4, !tbaa !11
  store i32 %64, ptr %7, align 4, !tbaa !11
  br label %65

65:                                               ; preds = %59, %18
  %66 = load i32, ptr %7, align 4, !tbaa !11
  %67 = load ptr, ptr %4, align 8, !tbaa !45
  %68 = getelementptr inbounds nuw %struct.PutBitContext, ptr %67, i32 0, i32 0
  store i32 %66, ptr %68, align 8, !tbaa !162
  %69 = load i32, ptr %8, align 4, !tbaa !11
  %70 = load ptr, ptr %4, align 8, !tbaa !45
  %71 = getelementptr inbounds nuw %struct.PutBitContext, ptr %70, i32 0, i32 1
  store i32 %69, ptr %71, align 4, !tbaa !160
  call void @llvm.lifetime.end.p0(i64 4, ptr %8) #8
  call void @llvm.lifetime.end.p0(i64 4, ptr %7) #8
  ret void
}

; Function Attrs: inlinehint nounwind uwtable
define internal void @put_bits(ptr noundef %0, i32 noundef %1, i32 noundef %2) #3 {
  %4 = alloca ptr, align 8
  %5 = alloca i32, align 4
  %6 = alloca i32, align 4
  store ptr %0, ptr %4, align 8, !tbaa !45
  store i32 %1, ptr %5, align 4, !tbaa !11
  store i32 %2, ptr %6, align 4, !tbaa !11
  %7 = load ptr, ptr %4, align 8, !tbaa !45
  %8 = load i32, ptr %5, align 4, !tbaa !11
  %9 = load i32, ptr %6, align 4, !tbaa !11
  call void @put_bits_no_assert(ptr noundef %7, i32 noundef %8, i32 noundef %9)
  ret void
}

; Function Attrs: inlinehint nounwind uwtable
define internal i32 @put_bits_left(ptr noundef %0) #3 {
  %2 = alloca ptr, align 8
  store ptr %0, ptr %2, align 8, !tbaa !45
  %3 = load ptr, ptr %2, align 8, !tbaa !45
  %4 = getelementptr inbounds nuw %struct.PutBitContext, ptr %3, i32 0, i32 4
  %5 = load ptr, ptr %4, align 8, !tbaa !161
  %6 = load ptr, ptr %2, align 8, !tbaa !45
  %7 = getelementptr inbounds nuw %struct.PutBitContext, ptr %6, i32 0, i32 3
  %8 = load ptr, ptr %7, align 8, !tbaa !157
  %9 = ptrtoint ptr %5 to i64
  %10 = ptrtoint ptr %8 to i64
  %11 = sub i64 %9, %10
  %12 = mul nsw i64 %11, 8
  %13 = sub nsw i64 %12, 32
  %14 = load ptr, ptr %2, align 8, !tbaa !45
  %15 = getelementptr inbounds nuw %struct.PutBitContext, ptr %14, i32 0, i32 1
  %16 = load i32, ptr %15, align 4, !tbaa !160
  %17 = sext i32 %16 to i64
  %18 = add nsw i64 %13, %17
  %19 = trunc i64 %18 to i32
  ret i32 %19
}

; Function Attrs: inlinehint nounwind uwtable
define internal i32 @put_bits_count(ptr noundef %0) #3 {
  %2 = alloca ptr, align 8
  store ptr %0, ptr %2, align 8, !tbaa !45
  %3 = load ptr, ptr %2, align 8, !tbaa !45
  %4 = getelementptr inbounds nuw %struct.PutBitContext, ptr %3, i32 0, i32 3
  %5 = load ptr, ptr %4, align 8, !tbaa !157
  %6 = load ptr, ptr %2, align 8, !tbaa !45
  %7 = getelementptr inbounds nuw %struct.PutBitContext, ptr %6, i32 0, i32 2
  %8 = load ptr, ptr %7, align 8, !tbaa !159
  %9 = ptrtoint ptr %5 to i64
  %10 = ptrtoint ptr %8 to i64
  %11 = sub i64 %9, %10
  %12 = mul nsw i64 %11, 8
  %13 = add nsw i64 %12, 32
  %14 = load ptr, ptr %2, align 8, !tbaa !45
  %15 = getelementptr inbounds nuw %struct.PutBitContext, ptr %14, i32 0, i32 1
  %16 = load i32, ptr %15, align 4, !tbaa !160
  %17 = sext i32 %16 to i64
  %18 = sub nsw i64 %13, %17
  %19 = trunc i64 %18 to i32
  ret i32 %19
}

; Function Attrs: nounwind uwtable
define internal i32 @cbs_vp9_write_increment(ptr noundef %0, ptr noundef %1, i32 noundef %2, i32 noundef %3, ptr noundef %4, i32 noundef %5) #0 {
  %7 = alloca i32, align 4
  %8 = alloca ptr, align 8
  %9 = alloca ptr, align 8
  %10 = alloca i32, align 4
  %11 = alloca i32, align 4
  %12 = alloca ptr, align 8
  %13 = alloca i32, align 4
  %14 = alloca i32, align 4
  %15 = alloca i32, align 4
  %16 = alloca i32, align 4
  %17 = alloca ptr, align 8
  %18 = alloca i32, align 4
  store ptr %0, ptr %8, align 8, !tbaa !4
  store ptr %1, ptr %9, align 8, !tbaa !45
  store i32 %2, ptr %10, align 4, !tbaa !11
  store i32 %3, ptr %11, align 4, !tbaa !11
  store ptr %4, ptr %12, align 8, !tbaa !57
  store i32 %5, ptr %13, align 4, !tbaa !11
  call void @llvm.lifetime.start.p0(i64 4, ptr %14) #8
  call void @llvm.lifetime.start.p0(i64 4, ptr %15) #8
  br label %19

19:                                               ; preds = %6
  %20 = load ptr, ptr %8, align 8, !tbaa !4
  %21 = getelementptr inbounds nuw %struct.CodedBitstreamContext, ptr %20, i32 0, i32 5
  %22 = load i32, ptr %21, align 4, !tbaa !74
  %23 = icmp ne i32 %22, 0
  br i1 %23, label %24, label %27

24:                                               ; preds = %19
  %25 = load ptr, ptr %9, align 8, !tbaa !45
  %26 = call i32 @put_bits_count(ptr noundef %25)
  store i32 %26, ptr %15, align 4, !tbaa !11
  br label %27

27:                                               ; preds = %24, %19
  br label %28

28:                                               ; preds = %27
  br label %29

29:                                               ; preds = %28
  br label %30

30:                                               ; preds = %29
  %31 = load i32, ptr %10, align 4, !tbaa !11
  %32 = load i32, ptr %11, align 4, !tbaa !11
  %33 = icmp ule i32 %31, %32
  br i1 %33, label %34, label %39

34:                                               ; preds = %30
  %35 = load i32, ptr %11, align 4, !tbaa !11
  %36 = load i32, ptr %10, align 4, !tbaa !11
  %37 = sub i32 %35, %36
  %38 = icmp ult i32 %37, 8
  br i1 %38, label %40, label %39

39:                                               ; preds = %34, %30
  call void (ptr, i32, ptr, ...) @av_log(ptr noundef null, i32 noundef 0, ptr noundef @.str.8, ptr noundef @.str.89, ptr noundef @.str.10, i32 noundef 111)
  call void @abort() #9
  unreachable

40:                                               ; preds = %34
  br label %41

41:                                               ; preds = %40
  br label %42

42:                                               ; preds = %41
  %43 = load i32, ptr %13, align 4, !tbaa !11
  %44 = load i32, ptr %10, align 4, !tbaa !11
  %45 = icmp ult i32 %43, %44
  br i1 %45, label %50, label %46

46:                                               ; preds = %42
  %47 = load i32, ptr %13, align 4, !tbaa !11
  %48 = load i32, ptr %11, align 4, !tbaa !11
  %49 = icmp ugt i32 %47, %48
  br i1 %49, label %50, label %58

50:                                               ; preds = %46, %42
  %51 = load ptr, ptr %8, align 8, !tbaa !4
  %52 = getelementptr inbounds nuw %struct.CodedBitstreamContext, ptr %51, i32 0, i32 0
  %53 = load ptr, ptr %52, align 8, !tbaa !24
  %54 = load ptr, ptr %12, align 8, !tbaa !57
  %55 = load i32, ptr %13, align 4, !tbaa !11
  %56 = load i32, ptr %10, align 4, !tbaa !11
  %57 = load i32, ptr %11, align 4, !tbaa !11
  call void (ptr, i32, ptr, ...) @av_log(ptr noundef %53, i32 noundef 16, ptr noundef @.str.90, ptr noundef %54, i32 noundef %55, i32 noundef %56, i32 noundef %57)
  store i32 -1094995529, ptr %7, align 4
  store i32 1, ptr %16, align 4
  br label %128

58:                                               ; preds = %46
  %59 = load i32, ptr %13, align 4, !tbaa !11
  %60 = load i32, ptr %11, align 4, !tbaa !11
  %61 = icmp eq i32 %59, %60
  br i1 %61, label %62, label %66

62:                                               ; preds = %58
  %63 = load i32, ptr %11, align 4, !tbaa !11
  %64 = load i32, ptr %10, align 4, !tbaa !11
  %65 = sub i32 %63, %64
  store i32 %65, ptr %14, align 4, !tbaa !11
  br label %71

66:                                               ; preds = %58
  %67 = load i32, ptr %13, align 4, !tbaa !11
  %68 = load i32, ptr %10, align 4, !tbaa !11
  %69 = sub i32 %67, %68
  %70 = add i32 %69, 1
  store i32 %70, ptr %14, align 4, !tbaa !11
  br label %71

71:                                               ; preds = %66, %62
  %72 = load ptr, ptr %9, align 8, !tbaa !45
  %73 = call i32 @put_bits_left(ptr noundef %72)
  %74 = load i32, ptr %14, align 4, !tbaa !11
  %75 = icmp slt i32 %73, %74
  br i1 %75, label %76, label %77

76:                                               ; preds = %71
  store i32 -28, ptr %7, align 4
  store i32 1, ptr %16, align 4
  br label %128

77:                                               ; preds = %71
  %78 = load i32, ptr %14, align 4, !tbaa !11
  %79 = icmp sgt i32 %78, 0
  br i1 %79, label %80, label %91

80:                                               ; preds = %77
  %81 = load ptr, ptr %9, align 8, !tbaa !45
  %82 = load i32, ptr %14, align 4, !tbaa !11
  %83 = load i32, ptr %14, align 4, !tbaa !11
  %84 = shl i32 1, %83
  %85 = sub nsw i32 %84, 1
  %86 = load i32, ptr %13, align 4, !tbaa !11
  %87 = load i32, ptr %11, align 4, !tbaa !11
  %88 = icmp ne i32 %86, %87
  %89 = zext i1 %88 to i32
  %90 = sub nsw i32 %85, %89
  call void @put_bits(ptr noundef %81, i32 noundef %82, i32 noundef %90)
  br label %91

91:                                               ; preds = %80, %77
  br label %92

92:                                               ; preds = %91
  call void @llvm.lifetime.start.p0(i64 8, ptr %17) #8
  store ptr null, ptr %17, align 8, !tbaa !73
  br label %93

93:                                               ; preds = %92
  %94 = load ptr, ptr %8, align 8, !tbaa !4
  %95 = getelementptr inbounds nuw %struct.CodedBitstreamContext, ptr %94, i32 0, i32 5
  %96 = load i32, ptr %95, align 4, !tbaa !74
  %97 = icmp ne i32 %96, 0
  br i1 %97, label %98, label %123

98:                                               ; preds = %93
  call void @llvm.lifetime.start.p0(i64 4, ptr %18) #8
  %99 = load ptr, ptr %9, align 8, !tbaa !45
  %100 = call i32 @put_bits_count(ptr noundef %99)
  store i32 %100, ptr %18, align 4, !tbaa !11
  br label %101

101:                                              ; preds = %98
  %102 = load i32, ptr %15, align 4, !tbaa !11
  %103 = load i32, ptr %18, align 4, !tbaa !11
  %104 = icmp sle i32 %102, %103
  br i1 %104, label %106, label %105

105:                                              ; preds = %101
  call void (ptr, i32, ptr, ...) @av_log(ptr noundef null, i32 noundef 0, ptr noundef @.str.8, ptr noundef @.str.12, ptr noundef @.str.10, i32 noundef 129)
  call void @abort() #9
  unreachable

106:                                              ; preds = %101
  br label %107

107:                                              ; preds = %106
  br label %108

108:                                              ; preds = %107
  %109 = load ptr, ptr %8, align 8, !tbaa !4
  %110 = getelementptr inbounds nuw %struct.CodedBitstreamContext, ptr %109, i32 0, i32 9
  %111 = load ptr, ptr %110, align 8, !tbaa !176
  %112 = load ptr, ptr %8, align 8, !tbaa !4
  %113 = getelementptr inbounds nuw %struct.CodedBitstreamContext, ptr %112, i32 0, i32 7
  %114 = load ptr, ptr %113, align 8, !tbaa !78
  %115 = load ptr, ptr %9, align 8, !tbaa !45
  %116 = load i32, ptr %18, align 4, !tbaa !11
  %117 = load i32, ptr %15, align 4, !tbaa !11
  %118 = sub nsw i32 %116, %117
  %119 = load ptr, ptr %12, align 8, !tbaa !57
  %120 = load ptr, ptr %17, align 8, !tbaa !73
  %121 = load i32, ptr %13, align 4, !tbaa !11
  %122 = zext i32 %121 to i64
  call void %111(ptr noundef %114, ptr noundef %115, i32 noundef %118, ptr noundef %119, ptr noundef %120, i64 noundef %122)
  call void @llvm.lifetime.end.p0(i64 4, ptr %18) #8
  br label %123

123:                                              ; preds = %108, %93
  br label %124

124:                                              ; preds = %123
  br label %125

125:                                              ; preds = %124
  call void @llvm.lifetime.end.p0(i64 8, ptr %17) #8
  br label %126

126:                                              ; preds = %125
  br label %127

127:                                              ; preds = %126
  store i32 0, ptr %7, align 4
  store i32 1, ptr %16, align 4
  br label %128

128:                                              ; preds = %127, %76, %50
  call void @llvm.lifetime.end.p0(i64 4, ptr %15) #8
  call void @llvm.lifetime.end.p0(i64 4, ptr %14) #8
  %129 = load i32, ptr %7, align 4
  ret i32 %129
}