; Function Attrs: nounwind uwtable
define internal fastcc range(i32 -1094995529, 1) i32 @cbs_vp9_write_increment(ptr noundef readonly captures(none) %0, ptr noundef %1, i32 noundef %2, i32 noundef %3, ptr noundef %4, i32 noundef range(i32 0, 256) %5) unnamed_addr #0 {
  %7 = getelementptr inbounds nuw i8, ptr %0, i64 36
  %8 = load i32, ptr %7, align 4, !tbaa !23
  %.not = icmp eq i32 %8, 0
  br i1 %.not, label %21, label %9

9:                                                ; preds = %6
  %10 = getelementptr inbounds nuw i8, ptr %1, i64 16
  %11 = load ptr, ptr %10, align 8, !tbaa !86
  %12 = getelementptr inbounds nuw i8, ptr %1, i64 8
  %13 = load ptr, ptr %12, align 8, !tbaa !99
  %14 = ptrtoint ptr %11 to i64
  %15 = ptrtoint ptr %13 to i64
  %16 = sub i64 %14, %15
  %17 = getelementptr inbounds nuw i8, ptr %1, i64 4
  %18 = load i32, ptr %17, align 4, !tbaa !83
  %.tr.i = trunc i64 %16 to i32
  %19 = shl i32 %.tr.i, 3
  %reass.sub = sub i32 %19, %18
  %20 = add i32 %reass.sub, 32
  br label %21

21:                                               ; preds = %6, %9
  %.042 = phi i32 [ %20, %9 ], [ undef, %6 ]
  %.not48 = icmp ugt i32 %2, %3
  br i1 %.not48, label %25, label %22

22:                                               ; preds = %21
  %23 = sub nuw i32 %3, %2
  %24 = icmp ult i32 %23, 8
  br i1 %24, label %26, label %25

25:                                               ; preds = %22, %21
  tail call void (ptr, i32, ptr, ...) @av_log(ptr noundef null, i32 noundef 0, ptr noundef nonnull @.str.8, ptr noundef nonnull @.str.89, ptr noundef nonnull @.str.10, i32 noundef 111) #8
  tail call void @abort() #9
  unreachable

26:                                               ; preds = %22
  %27 = icmp ult i32 %5, %2
  %28 = icmp ugt i32 %5, %3
  %or.cond = or i1 %27, %28
  br i1 %or.cond, label %29, label %31

29:                                               ; preds = %26
  %30 = load ptr, ptr %0, align 8, !tbaa !29
  tail call void (ptr, i32, ptr, ...) @av_log(ptr noundef %30, i32 noundef 16, ptr noundef nonnull @.str.90, ptr noundef %4, i32 noundef %5, i32 noundef %2, i32 noundef %3) #8
  br label %91

31:                                               ; preds = %26
  %32 = icmp eq i32 %5, %3
  %reass.sub57 = sub nuw nsw i32 %5, %2
  %33 = add nuw nsw i32 %reass.sub57, 1
  %.041 = select i1 %32, i32 %23, i32 %33
  %34 = getelementptr inbounds nuw i8, ptr %1, i64 24
  %35 = load ptr, ptr %34, align 8, !tbaa !87
  %36 = getelementptr inbounds nuw i8, ptr %1, i64 16
  %37 = load ptr, ptr %36, align 8, !tbaa !86
  %38 = ptrtoint ptr %35 to i64
  %39 = ptrtoint ptr %37 to i64
  %40 = sub i64 %38, %39
  %41 = getelementptr inbounds nuw i8, ptr %1, i64 4
  %42 = load i32, ptr %41, align 4, !tbaa !83
  %.tr.i51 = trunc i64 %40 to i32
  %43 = shl i32 %.tr.i51, 3
  %44 = add i32 %42, -32
  %45 = add i32 %44, %43
  %46 = icmp slt i32 %45, %.041
  br i1 %46, label %91, label %47

47:                                               ; preds = %31
  %.not60 = icmp eq i32 %.041, 0
  br i1 %.not60, label %71, label %48

48:                                               ; preds = %47
  %notmask = shl nsw i32 -1, %.041
  %49 = xor i32 %notmask, -1
  %50 = icmp ne i32 %5, %3
  %.neg = sext i1 %50 to i32
  %51 = add nsw i32 %49, %.neg
  %52 = load i32, ptr %1, align 8, !tbaa !88
  %53 = icmp slt i32 %.041, %42
  br i1 %53, label %54, label %58

54:                                               ; preds = %48
  %55 = shl i32 %52, %.041
  %56 = or i32 %55, %51
  %57 = sub nsw i32 %42, %.041
  br label %put_bits.exit

58:                                               ; preds = %48
  %59 = icmp ugt i64 %40, 3
  br i1 %59, label %60, label %68

60:                                               ; preds = %58
  %61 = shl i32 %52, %42
  %62 = sub nsw i32 %.041, %42
  %63 = lshr i32 %51, %62
  %64 = or i32 %61, %63
  %65 = tail call i32 @llvm.bswap.i32(i32 %64)
  store i32 %65, ptr %37, align 1, !tbaa !15
  %66 = load ptr, ptr %36, align 8, !tbaa !86
  %67 = getelementptr inbounds nuw i8, ptr %66, i64 4
  store ptr %67, ptr %36, align 8, !tbaa !86
  br label %69

68:                                               ; preds = %58
  tail call void (ptr, i32, ptr, ...) @av_log(ptr noundef null, i32 noundef 16, ptr noundef nonnull @.str.87) #8
  br label %69

69:                                               ; preds = %68, %60
  %reass.sub58 = sub i32 %42, %.041
  %70 = add i32 %reass.sub58, 32
  %.pre.pre = load i32, ptr %7, align 4, !tbaa !23
  br label %put_bits.exit

put_bits.exit:                                    ; preds = %54, %69
  %.pre = phi i32 [ %8, %54 ], [ %.pre.pre, %69 ]
  %.026.i.i = phi i32 [ %56, %54 ], [ %51, %69 ]
  %.0.i.i = phi i32 [ %57, %54 ], [ %70, %69 ]
  store i32 %.026.i.i, ptr %1, align 8, !tbaa !88
  store i32 %.0.i.i, ptr %41, align 4, !tbaa !83
  br label %71

71:                                               ; preds = %47, %put_bits.exit
  %72 = phi i32 [ %42, %47 ], [ %.0.i.i, %put_bits.exit ]
  %73 = phi i32 [ %8, %47 ], [ %.pre, %put_bits.exit ]
  %.not49 = icmp eq i32 %73, 0
  br i1 %.not49, label %91, label %74

74:                                               ; preds = %71
  %75 = load ptr, ptr %36, align 8, !tbaa !86
  %76 = getelementptr inbounds nuw i8, ptr %1, i64 8
  %77 = load ptr, ptr %76, align 8, !tbaa !99
  %78 = ptrtoint ptr %75 to i64
  %79 = ptrtoint ptr %77 to i64
  %80 = sub i64 %78, %79
  %.tr.i53 = trunc i64 %80 to i32
  %81 = shl i32 %.tr.i53, 3
  %reass.sub.i54 = sub i32 %81, %72
  %82 = add i32 %reass.sub.i54, 32
  %.not50 = icmp sgt i32 %.042, %82
  br i1 %.not50, label %83, label %84

83:                                               ; preds = %74
  tail call void (ptr, i32, ptr, ...) @av_log(ptr noundef null, i32 noundef 0, ptr noundef nonnull @.str.8, ptr noundef nonnull @.str.12, ptr noundef nonnull @.str.10, i32 noundef 129) #8
  tail call void @abort() #9
  unreachable

84:                                               ; preds = %74
  %85 = getelementptr inbounds nuw i8, ptr %0, i64 64
  %86 = load ptr, ptr %85, align 8, !tbaa !101
  %87 = getelementptr inbounds nuw i8, ptr %0, i64 48
  %88 = load ptr, ptr %87, align 8, !tbaa !33
  %89 = sub nsw i32 %82, %.042
  %90 = zext nneg i32 %5 to i64
  tail call void %86(ptr noundef %88, ptr noundef nonnull %1, i32 noundef %89, ptr noundef %4, ptr noundef null, i64 noundef %90) #8
  br label %91

91:                                               ; preds = %71, %84, %31, %29
  %.0 = phi i32 [ -1094995529, %29 ], [ -28, %31 ], [ 0, %84 ], [ 0, %71 ]
  ret i32 %.0
}